; Function Attrs: mustprogress uwtable
define hidden noundef zeroext i1 @_ZN6google4base8internal15GetExitOnDFatalEv() local_unnamed_addr #0 personality ptr @__gxx_personality_v0 {
  %1 = tail call noundef i32 @pthread_mutex_lock(ptr noundef nonnull align 8 dereferenceable(40) @_ZN6googleL9log_mutexE) #49
  %.not.i.i = icmp eq i32 %1, 0
  br i1 %.not.i.i, label %_ZNSt10lock_guardISt5mutexEC2ERS0_.exit, label %2

2:                                                ; preds = %0
  tail call void @_ZSt20__throw_system_errori(i32 noundef %1) #52
  unreachable

_ZNSt10lock_guardISt5mutexEC2ERS0_.exit:          ; preds = %0
  %3 = load i8, ptr @_ZN6googleL14exit_on_dfatalE, align 1, !tbaa !92, !range !93, !noundef !94
  %4 = trunc nuw i8 %3 to i1
  %5 = tail call noundef i32 @pthread_mutex_unlock(ptr noundef nonnull align 8 dereferenceable(40) @_ZN6googleL9log_mutexE) #49
  ret i1 %4
}